target datalayout = "e-m:e-p270:32:32-p271:32:32-p272:64:64-i64:64-i128:128-f80:128-n8:16:32:64-S128"
target triple = "x86_64-pc-linux-gnu"

%struct.lean_object = type { i32, i32 }

; Function Attrs: alwaysinline nounwind uwtable
define internal void @lean_dec_ref(ptr noundef %0) #1 {
  %2 = alloca ptr, align 8
  store ptr %0, ptr %2, align 8, !tbaa !8
  %3 = load ptr, ptr %2, align 8, !tbaa !8
  %4 = getelementptr inbounds nuw %struct.lean_object, ptr %3, i32 0, i32 0
  %5 = load i32, ptr %4, align 4, !tbaa !15
  %6 = icmp sgt i32 %5, 1
  %7 = zext i1 %6 to i32
  %8 = sext i32 %7 to i64
  %9 = call i64 @llvm.expect.i64(i64 %8, i64 1)
  %10 = icmp ne i64 %9, 0
  br i1 %10, label %11, label %16

11:                                               ; preds = %1
  %12 = load ptr, ptr %2, align 8, !tbaa !8
  %13 = getelementptr inbounds nuw %struct.lean_object, ptr %12, i32 0, i32 0
  %14 = load i32, ptr %13, align 4, !tbaa !15
  %15 = add i32 %14, -1
  store i32 %15, ptr %13, align 4, !tbaa !15
  br label %24

16:                                               ; preds = %1
  %17 = load ptr, ptr %2, align 8, !tbaa !8
  %18 = getelementptr inbounds nuw %struct.lean_object, ptr %17, i32 0, i32 0
  %19 = load i32, ptr %18, align 4, !tbaa !15
  %20 = icmp ne i32 %19, 0
  br i1 %20, label %21, label %23

21:                                               ; preds = %16
  %22 = load ptr, ptr %2, align 8, !tbaa !8
  call void @lean_dec_ref_cold(ptr noundef %22)
  br label %23

23:                                               ; preds = %21, %16
  br label %24

24:                                               ; preds = %23, %11
  ret void
}

; Function Attrs: alwaysinline nounwind uwtable
define internal zeroext i1 @lean_is_scalar(ptr noundef %0) #1 {
  %2 = alloca ptr, align 8
  store ptr %0, ptr %2, align 8, !tbaa !8
  %3 = load ptr, ptr %2, align 8, !tbaa !8
  %4 = ptrtoint ptr %3 to i64
  %5 = and i64 %4, 1
  %6 = icmp eq i64 %5, 1
  ret i1 %6
}

; Function Attrs: alwaysinline nounwind uwtable
define internal void @lean_dec(ptr noundef %0) #1 {
  %2 = alloca ptr, align 8
  store ptr %0, ptr %2, align 8, !tbaa !8
  %3 = load ptr, ptr %2, align 8, !tbaa !8
  %4 = call zeroext i1 @lean_is_scalar(ptr noundef %3)
  br i1 %4, label %7, label %5

5:                                                ; preds = %1
  %6 = load ptr, ptr %2, align 8, !tbaa !8
  call void @lean_dec_ref(ptr noundef %6)
  br label %7

7:                                                ; preds = %5, %1
  ret void
}

; Function Attrs: inlinehint nounwind uwtable
define internal i64 @lean_unbox(ptr noundef %0) #0 {
  %2 = alloca ptr, align 8
  store ptr %0, ptr %2, align 8, !tbaa !8
  %3 = load ptr, ptr %2, align 8, !tbaa !8
  %4 = ptrtoint ptr %3 to i64
  %5 = lshr i64 %4, 1
  ret i64 %5
}

; Function Attrs: nounwind uwtable
define ptr @l___private_Lean_Elab_Deriving_Inhabited_0__Lean_Elab_mkInhabitedInstanceUsing___boxed(ptr noundef %0, ptr noundef %1, ptr noundef %2, ptr noundef %3, ptr noundef %4, ptr noundef %5) #2 {
  %7 = alloca ptr, align 8
  %8 = alloca ptr, align 8
  %9 = alloca ptr, align 8
  %10 = alloca ptr, align 8
  %11 = alloca ptr, align 8
  %12 = alloca ptr, align 8
  %13 = alloca i8, align 1
  %14 = alloca ptr, align 8
  store ptr %0, ptr %7, align 8, !tbaa !8
  store ptr %1, ptr %8, align 8, !tbaa !8
  store ptr %2, ptr %9, align 8, !tbaa !8
  store ptr %3, ptr %10, align 8, !tbaa !8
  store ptr %4, ptr %11, align 8, !tbaa !8
  store ptr %5, ptr %12, align 8, !tbaa !8
  br label %15

15:                                               ; preds = %6
  call void @llvm.lifetime.start.p0(i64 1, ptr %13) #7
  call void @llvm.lifetime.start.p0(i64 8, ptr %14) #7
  %16 = load ptr, ptr %9, align 8, !tbaa !8
  %17 = call i64 @lean_unbox(ptr noundef %16)
  %18 = trunc i64 %17 to i8
  store i8 %18, ptr %13, align 1, !tbaa !14
  %19 = load ptr, ptr %9, align 8, !tbaa !8
  call void @lean_dec(ptr noundef %19)
  %20 = load ptr, ptr %7, align 8, !tbaa !8
  %21 = load ptr, ptr %8, align 8, !tbaa !8
  %22 = load i8, ptr %13, align 1, !tbaa !14
  %23 = load ptr, ptr %10, align 8, !tbaa !8
  %24 = load ptr, ptr %11, align 8, !tbaa !8
  %25 = load ptr, ptr %12, align 8, !tbaa !8
  %26 = call ptr @l___private_Lean_Elab_Deriving_Inhabited_0__Lean_Elab_mkInhabitedInstanceUsing(ptr noundef %20, ptr noundef %21, i8 noundef zeroext %22, ptr noundef %23, ptr noundef %24, ptr noundef %25)
  store ptr %26, ptr %14, align 8, !tbaa !8
  %27 = load ptr, ptr %14, align 8, !tbaa !8
  call void @llvm.lifetime.end.p0(i64 8, ptr %14) #7
  call void @llvm.lifetime.end.p0(i64 1, ptr %13) #7
  ret ptr %27
}